; Function Attrs: nounwind uwtable
define dso_local i32 @mallctlbymib(ptr noundef %0, i64 noundef %1, ptr noundef %2, ptr noundef %3, ptr noundef %4, i64 noundef %5) local_unnamed_addr #2 {
  %7 = load i32, ptr @je_malloc_init_state, align 4, !tbaa !4
  %8 = icmp eq i32 %7, 0
  br i1 %8, label %malloc_init.exit, label %9, !prof !10

9:                                                ; preds = %6
  %10 = tail call fastcc zeroext i1 @malloc_init_hard()
  br i1 %10, label %malloc_init.exit.thread, label %malloc_init.exit

malloc_init.exit:                                 ; preds = %9, %6
  %11 = tail call nonnull align 8 ptr @llvm.threadlocal.address.p0(ptr align 8 @je_tsd_tls)
  %12 = getelementptr inbounds nuw i8, ptr %11, i64 888
  %13 = load i8, ptr %12, align 8, !tbaa !11
  %.not.i = icmp eq i8 %13, 0
  br i1 %.not.i, label %tsd_fetch_impl.exit, label %14, !prof !10

14:                                               ; preds = %malloc_init.exit
  %15 = tail call ptr @je_tsd_fetch_slow(ptr noundef nonnull %11, i1 noundef zeroext false) #20
  br label %tsd_fetch_impl.exit

tsd_fetch_impl.exit:                              ; preds = %malloc_init.exit, %14
  %.0.i10 = phi ptr [ %15, %14 ], [ %11, %malloc_init.exit ]
  %16 = tail call i32 @je_ctl_bymib(ptr noundef %.0.i10, ptr noundef %0, i64 noundef %1, ptr noundef %2, ptr noundef %3, ptr noundef %4, i64 noundef %5) #20
  br label %malloc_init.exit.thread

malloc_init.exit.thread:                          ; preds = %9, %tsd_fetch_impl.exit
  %.0 = phi i32 [ %16, %tsd_fetch_impl.exit ], [ 11, %9 ]
  ret i32 %.0
}